(dp1
S'output'
p2
S'<class \'psycopg2.ProgrammingError\'> multiple primary keys for table "sender_to" are not allowed\nLINE 3:     "emailid" SERIAL PRIMARY KEY,\n                             ^\n'
p3
sS'layer'
p4
S'C:\\Users\\miroj\\helpdeskanalyser\\web2py\\applications\\helpdeskanalyser\\models\\db_helpdeskanalyser.py'
p5
sS'code'
p6
S'<code object <module> at 066007B8, file "C:\\Users\\miroj\\helpdeskanalyser\\web2py\\applications\\helpdeskanalyser\\models\\db_helpdeskanalyser.py", line 8>'
p7
sS'snapshot'
p8
(dp9
S'exception'
p10
(dp11
S'__module__'
p12
S"'psycopg2'"
p13
sS'__getslice__'
p14
S"<method-wrapper '__getslice__' of ProgrammingError object>"
p15
sS'__str__'
p16
S"<method-wrapper '__str__' of ProgrammingError object>"
p17
sS'__reduce__'
p18
S'<built-in method __reduce__ of ProgrammingError object>'
p19
sS'__dict__'
p20
S'{}'
p21
sS'__sizeof__'
p22
S'<built-in method __sizeof__ of ProgrammingError object>'
p23
sS'__weakref__'
p24
S'None'
p25
sS'message'
p26
S'\'multiple primary keys for table "sender_to" are ...RIAL PRIMARY KEY,\\n                             ^\\n\''
p27
sS'__init__'
p28
S"<method-wrapper '__init__' of ProgrammingError object>"
p29
sS'__setattr__'
p30
S"<method-wrapper '__setattr__' of ProgrammingError object>"
p31
sS'__reduce_ex__'
p32
S'<built-in method __reduce_ex__ of ProgrammingError object>'
p33
sS'__new__'
p34
S'<built-in method __new__ of type object>'
p35
sS'diag'
p36
S'<psycopg2._psycopg.Diagnostics object>'
p37
sS'__format__'
p38
S'<built-in method __format__ of ProgrammingError object>'
p39
sS'__class__'
p40
S"<class 'psycopg2.ProgrammingError'>"
p41
sS'pgerror'
p42
S'\'ERROR:  multiple primary keys for table "sender_...RIAL PRIMARY KEY,\\n                             ^\\n\''
p43
sS'__doc__'
p44
S"'Error related to database programming (SQL error, table not found etc).'"
p45
sS'__getitem__'
p46
S"<method-wrapper '__getitem__' of ProgrammingError object>"
p47
sS'__setstate__'
p48
S'<built-in method __setstate__ of ProgrammingError object>'
p49
sS'__getattribute__'
p50
S"<method-wrapper '__getattribute__' of ProgrammingError object>"
p51
sS'args'
p52
S'(\'multiple primary keys for table "sender_to" are ...RIAL PRIMARY KEY,\\n                             ^\\n\',)'
p53
sS'__subclasshook__'
p54
S'<built-in method __subclasshook__ of type object>'
p55
sS'pgcode'
p56
S"'42P16'"
p57
sS'__unicode__'
p58
S'<built-in method __unicode__ of ProgrammingError object>'
p59
sS'cursor'
p60
S'<cursor object at 0x065327B0; closed: 0>'
p61
sS'__delattr__'
p62
S"<method-wrapper '__delattr__' of ProgrammingError object>"
p63
sS'__repr__'
p64
S"<method-wrapper '__repr__' of ProgrammingError object>"
p65
sS'__hash__'
p66
S"<method-wrapper '__hash__' of ProgrammingError object>"
p67
ssS'evalue'
p68
S'multiple primary keys for table "sender_to" are not allowed\nLINE 3:     "emailid" SERIAL PRIMARY KEY,\n                             ^\n'
p69
sS'request'
p70
cgluon.html
XML_unpickle
p71
(S's.y\x00\x00<div><table><tr><td style="font-weight:bold;vertical-align:top;">ajax</td><td style="vertical-align:top;">:</td><td><div>True</div></td></tr><tr><td style="font-weight:bold;vertical-align:top;">application</td><td style="vertical-align:top;">:</td><td><div>helpdeskanalyser</div></td></tr><tr><td style="font-weight:bold;vertical-align:top;">args</td><td style="vertical-align:top;">:</td><td><div><table></table></div></td></tr><tr><td style="font-weight:bold;vertical-align:top;">cid</td><td style="vertical-align:top;">:</td><td><div>c120461450262</div></td></tr><tr><td style="font-weight:bold;vertical-align:top;">client</td><td style="vertical-align:top;">:</td><td><div>127.0.0.1</div></td></tr><tr><td style="font-weight:bold;vertical-align:top;">controller</td><td style="vertical-align:top;">:</td><td><div>appadmin</div></td></tr><tr><td style="font-weight:bold;vertical-align:top;">cookies</td><td style="vertical-align:top;">:</td><td><div><table><tr><td style="font-weight:bold;vertical-align:top;">PGADMIN_KEY</td><td style="vertical-align:top;">:</td><td><div>d1193ef2-8ef7-4d14-8162-94084f7be158<table><tr><td style="font-weight:bold;vertical-align:top;">comment</td><td style="vertical-align:top;">:</td><td><div></div></td></tr><tr><td style="font-weight:bold;vertical-align:top;">domain</td><td style="vertical-align:top;">:</td><td><div></div></td></tr><tr><td style="font-weight:bold;vertical-align:top;">expires</td><td style="vertical-align:top;">:</td><td><div></div></td></tr><tr><td style="font-weight:bold;vertical-align:top;">httponly</td><td style="vertical-align:top;">:</td><td><div></div></td></tr><tr><td style="font-weight:bold;vertical-align:top;">max-age</td><td style="vertical-align:top;">:</td><td><div></div></td></tr><tr><td style="font-weight:bold;vertical-align:top;">path</td><td style="vertical-align:top;">:</td><td><div></div></td></tr><tr><td style="font-weight:bold;vertical-align:top;">samesite</td><td style="vertical-align:top;">:</td><td><div></div></td></tr><tr><td style="font-weight:bold;vertical-align:top;">secure</td><td style="vertical-align:top;">:</td><td><div></div></td></tr><tr><td style="font-weight:bold;vertical-align:top;">version</td><td style="vertical-align:top;">:</td><td><div></div></td></tr></table></div></td></tr><tr><td style="font-weight:bold;vertical-align:top;">PGADMIN_LANGUAGE</td><td style="vertical-align:top;">:</td><td><div>en<table><tr><td style="font-weight:bold;vertical-align:top;">comment</td><td style="vertical-align:top;">:</td><td><div></div></td></tr><tr><td style="font-weight:bold;vertical-align:top;">domain</td><td style="vertical-align:top;">:</td><td><div></div></td></tr><tr><td style="font-weight:bold;vertical-align:top;">expires</td><td style="vertical-align:top;">:</td><td><div></div></td></tr><tr><td style="font-weight:bold;vertical-align:top;">httponly</td><td style="vertical-align:top;">:</td><td><div></div></td></tr><tr><td style="font-weight:bold;vertical-align:top;">max-age</td><td style="vertical-align:top;">:</td><td><div></div></td></tr><tr><td style="font-weight:bold;vertical-align:top;">path</td><td style="vertical-align:top;">:</td><td><div></div></td></tr><tr><td style="font-weight:bold;vertical-align:top;">samesite</td><td style="vertical-align:top;">:</td><td><div></div></td></tr><tr><td style="font-weight:bold;vertical-align:top;">secure</td><td style="vertical-align:top;">:</td><td><div></div></td></tr><tr><td style="font-weight:bold;vertical-align:top;">version</td><td style="vertical-align:top;">:</td><td><div></div></td></tr></table></div></td></tr><tr><td style="font-weight:bold;vertical-align:top;">pga4_session</td><td style="vertical-align:top;">:</td><td><div>e16a90ee-e132-4a6a-a1a4-61f883d17781!LCLR3x5s80MQd2mg4tkz0QR9RyE=<table><tr><td style="font-weight:bold;vertical-align:top;">comment</td><td style="vertical-align:top;">:</td><td><div></div></td></tr><tr><td style="font-weight:bold;vertical-align:top;">domain</td><td style="vertical-align:top;">:</td><td><div></div></td></tr><tr><td style="font-weight:bold;vertical-align:top;">expires</td><td style="vertical-align:top;">:</td><td><div></div></td></tr><tr><td style="font-weight:bold;vertical-align:top;">httponly</td><td style="vertical-align:top;">:</td><td><div></div></td></tr><tr><td style="font-weight:bold;vertical-align:top;">max-age</td><td style="vertical-align:top;">:</td><td><div></div></td></tr><tr><td style="font-weight:bold;vertical-align:top;">path</td><td style="vertical-align:top;">:</td><td><div></div></td></tr><tr><td style="font-weight:bold;vertical-align:top;">samesite</td><td style="vertical-align:top;">:</td><td><div></div></td></tr><tr><td style="font-weight:bold;vertical-align:top;">secure</td><td style="vertical-align:top;">:</td><td><div></div></td></tr><tr><td style="font-weight:bold;vertical-align:top;">version</td><td style="vertical-align:top;">:</td><td><div></div></td></tr></table></div></td></tr><tr><td style="font-weight:bold;vertical-align:top;">session_id_admin</td><td style="vertical-align:top;">:</td><td><div>127.0.0.1-e4f14cdd-c9c5-45e3-b703-1af99f647f13<table><tr><td style="font-weight:bold;vertical-align:top;">comment</td><td style="vertical-align:top;">:</td><td><div></div></td></tr><tr><td style="font-weight:bold;vertical-align:top;">domain</td><td style="vertical-align:top;">:</td><td><div></div></td></tr><tr><td style="font-weight:bold;vertical-align:top;">expires</td><td style="vertical-align:top;">:</td><td><div></div></td></tr><tr><td style="font-weight:bold;vertical-align:top;">httponly</td><td style="vertical-align:top;">:</td><td><div></div></td></tr><tr><td style="font-weight:bold;vertical-align:top;">max-age</td><td style="vertical-align:top;">:</td><td><div></div></td></tr><tr><td style="font-weight:bold;vertical-align:top;">path</td><td style="vertical-align:top;">:</td><td><div></div></td></tr><tr><td style="font-weight:bold;vertical-align:top;">samesite</td><td style="vertical-align:top;">:</td><td><div></div></td></tr><tr><td style="font-weight:bold;vertical-align:top;">secure</td><td style="vertical-align:top;">:</td><td><div></div></td></tr><tr><td style="font-weight:bold;vertical-align:top;">version</td><td style="vertical-align:top;">:</td><td><div></div></td></tr></table></div></td></tr><tr><td style="font-weight:bold;vertical-align:top;">session_id_intelligentfactory</td><td style="vertical-align:top;">:</td><td><div>127.0.0.1-34145abf-2eeb-4768-800b-67b466405f31<table><tr><td style="font-weight:bold;vertical-align:top;">comment</td><td style="vertical-align:top;">:</td><td><div></div></td></tr><tr><td style="font-weight:bold;vertical-align:top;">domain</td><td style="vertical-align:top;">:</td><td><div></div></td></tr><tr><td style="font-weight:bold;vertical-align:top;">expires</td><td style="vertical-align:top;">:</td><td><div></div></td></tr><tr><td style="font-weight:bold;vertical-align:top;">httponly</td><td style="vertical-align:top;">:</td><td><div></div></td></tr><tr><td style="font-weight:bold;vertical-align:top;">max-age</td><td style="vertical-align:top;">:</td><td><div></div></td></tr><tr><td style="font-weight:bold;vertical-align:top;">path</td><td style="vertical-align:top;">:</td><td><div></div></td></tr><tr><td style="font-weight:bold;vertical-align:top;">samesite</td><td style="vertical-align:top;">:</td><td><div></div></td></tr><tr><td style="font-weight:bold;vertical-align:top;">secure</td><td style="vertical-align:top;">:</td><td><div></div></td></tr><tr><td style="font-weight:bold;vertical-align:top;">version</td><td style="vertical-align:top;">:</td><td><div></div></td></tr></table></div></td></tr><tr><td style="font-weight:bold;vertical-align:top;">session_id_welcome</td><td style="vertical-align:top;">:</td><td><div>127.0.0.1-4388046e-d52b-4edd-a724-980f06c81314<table><tr><td style="font-weight:bold;vertical-align:top;">comment</td><td style="vertical-align:top;">:</td><td><div></div></td></tr><tr><td style="font-weight:bold;vertical-align:top;">domain</td><td style="vertical-align:top;">:</td><td><div></div></td></tr><tr><td style="font-weight:bold;vertical-align:top;">expires</td><td style="vertical-align:top;">:</td><td><div></div></td></tr><tr><td style="font-weight:bold;vertical-align:top;">httponly</td><td style="vertical-align:top;">:</td><td><div></div></td></tr><tr><td style="font-weight:bold;vertical-align:top;">max-age</td><td style="vertical-align:top;">:</td><td><div></div></td></tr><tr><td style="font-weight:bold;vertical-align:top;">path</td><td style="vertical-align:top;">:</td><td><div></div></td></tr><tr><td style="font-weight:bold;vertical-align:top;">samesite</td><td style="vertical-align:top;">:</td><td><div></div></td></tr><tr><td style="font-weight:bold;vertical-align:top;">secure</td><td style="vertical-align:top;">:</td><td><div></div></td></tr><tr><td style="font-weight:bold;vertical-align:top;">version</td><td style="vertical-align:top;">:</td><td><div></div></td></tr></table></div></td></tr></table></div></td></tr><tr><td style="font-weight:bold;vertical-align:top;">env</td><td style="vertical-align:top;">:</td><td><div><table><tr><td style="font-weight:bold;vertical-align:top;">CONTENT_TYPE</td><td style="vertical-align:top;">:</td><td><div>application/x-www-form-urlencoded; charset=UTF-8</div></td></tr><tr><td style="font-weight:bold;vertical-align:top;">HTTP_ACCEPT</td><td style="vertical-align:top;">:</td><td><div>*/*</div></td></tr><tr><td style="font-weight:bold;vertical-align:top;">HTTP_ACCEPT_ENCODING</td><td style="vertical-align:top;">:</td><td><div>gzip, deflate</div></td></tr><tr><td style="font-weight:bold;vertical-align:top;">HTTP_ACCEPT_LANGUAGE</td><td style="vertical-align:top;">:</td><td><div>pt-BR</div></td></tr><tr><td style="font-weight:bold;vertical-align:top;">HTTP_CONNECTION</td><td style="vertical-align:top;">:</td><td><div>Keep-Alive</div></td></tr><tr><td style="font-weight:bold;vertical-align:top;">HTTP_CONTENT_TYPE</td><td style="vertical-align:top;">:</td><td><div>application/x-www-form-urlencoded; charset=UTF-8</div></td></tr><tr><td style="font-weight:bold;vertical-align:top;">HTTP_COOKIE</td><td style="vertical-align:top;">:</td><td><div>PGADMIN_KEY=d1193ef2-8ef7-4d14-8162-94084f7be158; PGADMIN_LANGUAGE=en; session_id_welcome=127.0.0.1-4388046e-d52b-4edd-a724-980f06c81314; session_id_admin=127.0.0.1-e4f14cdd-c9c5-45e3-b703-1af99f647f13; pga4_session=e16a90ee-e132-4a6a-a1a4-61f883d17781!LCLR3x5s80MQd2mg4tkz0QR9RyE=; session_id_intelligentfactory=127.0.0.1-34145abf-2eeb-4768-800b-67b466405f31</div></td></tr><tr><td style="font-weight:bold;vertical-align:top;">HTTP_HOST</td><td style="vertical-align:top;">:</td><td><div>127.0.0.1:8000</div></td></tr><tr><td style="font-weight:bold;vertical-align:top;">HTTP_REFERER</td><td style="vertical-align:top;">:</td><td><div>http://127.0.0.1:8000/admin/default/edit/helpdeskanalyser/private/appconfig.ini?id=private</div></td></tr><tr><td style="font-weight:bold;vertical-align:top;">HTTP_USER_AGENT</td><td style="vertical-align:top;">:</td><td><div>Mozilla/5.0 (Windows NT 10.0; Win64; x64) AppleWebKit/537.36 (KHTML, like Gecko) Chrome/58.0.3029.110 Safari/537.36 Edge/16.16299</div></td></tr><tr><td style="font-weight:bold;vertical-align:top;">HTTP_WEB2PY_COMPONENT_ELEMENT</td><td style="vertical-align:top;">:</td><td><div>c120461450262</div></td></tr><tr><td style="font-weight:bold;vertical-align:top;">HTTP_WEB2PY_COMPONENT_LOCATION</td><td style="vertical-align:top;">:</td><td><div>http://127.0.0.1:8000/admin/default/edit/helpdeskanalyser/private/appconfig.ini?id=private</div></td></tr><tr><td style="font-weight:bold;vertical-align:top;">HTTP_X_REQUESTED_WITH</td><td style="vertical-align:top;">:</td><td><div>XMLHttpRequest</div></td></tr><tr><td style="font-weight:bold;vertical-align:top;">PATH_INFO</td><td style="vertical-align:top;">:</td><td><div>/helpdeskanalyser/appadmin/hooks</div></td></tr><tr><td style="font-weight:bold;vertical-align:top;">QUERY_STRING</td><td style="vertical-align:top;">:</td><td><div></div></td></tr><tr><td style="font-weight:bold;vertical-align:top;">REMOTE_ADDR</td><td style="vertical-align:top;">:</td><td><div>127.0.0.1</div></td></tr><tr><td style="font-weight:bold;vertical-align:top;">REMOTE_PORT</td><td style="vertical-align:top;">:</td><td><div>56987</div></td></tr><tr><td style="font-weight:bold;vertical-align:top;">REQUEST_METHOD</td><td style="vertical-align:top;">:</td><td><div>GET</div></td></tr><tr><td style="font-weight:bold;vertical-align:top;">SCRIPT_NAME</td><td style="vertical-align:top;">:</td><td><div></div></td></tr><tr><td style="font-weight:bold;vertical-align:top;">SERVER_NAME</td><td style="vertical-align:top;">:</td><td><div>LAPTOP-HOMMVTDQ</div></td></tr><tr><td style="font-weight:bold;vertical-align:top;">SERVER_PORT</td><td style="vertical-align:top;">:</td><td><div>8000</div></td></tr><tr><td style="font-weight:bold;vertical-align:top;">SERVER_PROTOCOL</td><td style="vertical-align:top;">:</td><td><div>HTTP/1.1</div></td></tr><tr><td style="font-weight:bold;vertical-align:top;">SERVER_SOFTWARE</td><td style="vertical-align:top;">:</td><td><div>Rocket 1.2.6</div></td></tr><tr><td style="font-weight:bold;vertical-align:top;">app_folders</td><td style="vertical-align:top;">:</td><td><div>set([&#x27;C:\\\\Users\\\\miroj\\\\helpdeskanalyser\\\\web2py\\\\applications\\\\helpdeskanalyser&#x27;, &#x27;C:\\\\Users\\\\miroj\\\\helpdeskanalyser\\\\web2py\\\\applications\\\\admin&#x27;, &#x27;C:\\\\Users\\\\miroj\\\\helpdeskanalyser\\\\web2py\\\\applications\\\\welcome&#x27;])</div></td></tr><tr><td style="font-weight:bold;vertical-align:top;">applications_parent</td><td style="vertical-align:top;">:</td><td><div>C:\\Users\\miroj\\helpdeskanalyser\\web2py</div></td></tr><tr><td style="font-weight:bold;vertical-align:top;">cmd_args</td><td style="vertical-align:top;">:</td><td><div><table></table></div></td></tr><tr><td style="font-weight:bold;vertical-align:top;">cmd_options</td><td style="vertical-align:top;">:</td><td><div>&lt;Values at 0x55825d0: {&#x27;verbose&#x27;: False, &#x27;ip&#x27;: &#x27;127.0.0.1&#x27;, &#x27;debuglevel&#x27;: 30, &#x27;with_scheduler&#x27;: False, &#x27;shutdown_timeout&#x27;: 5, &#x27;taskbar&#x27;: False, &#x27;with_coverage&#x27;: False, &#x27;pid_filename&#x27;: &#x27;httpserver.pid&#x27;, &#x27;maxthreads&#x27;: None, &#x27;softcron&#x27;: False, &#x27;server_name&#x27;: &#x27;LAPTOP-HOMMVTDQ&#x27;, &#x27;bpython&#x27;: False, &#x27;nogui&#x27;: False, &#x27;port&#x27;: 8000, &#x27;print_errors&#x27;: False, &#x27;extcron&#x27;: False, &#x27;runcron&#x27;: False, &#x27;run_system_tests&#x27;: False, &#x27;test&#x27;: None, &#x27;folder&#x27;: &#x27;C:\\\\Users\\\\miroj\\\\helpdeskanalyser\\\\web2py&#x27;, &#x27;config&#x27;: &#x27;&#x27;, &#x27;minthreads&#x27;: None, &#x27;shell&#x27;: None, &#x27;run&#x27;: &#x27;&#x27;, &#x27;log_filename&#x27;: &#x27;httpserver.log&#x27;, &#x27;profiler_dir&#x27;: None, &#x27;args&#x27;: [], &#x27;socket_timeout&#x27;: 5, &#x27;ssl_ca_certificate&#x27;: None, &#x27;scheduler&#x27;: None, &#x27;interfaces&#x27;: None, &#x27;ssl_private_key&#x27;: &#x27;&#x27;, &#x27;gae&#x27;: None, &#x27;password&#x27;: &#x27;******&#x27;, &#x27;request_queue_size&#x27;: 5, &#x27;ssl_certificate&#x27;: &#x27;&#x27;, &#x27;cronjob&#x27;: False, &#x27;numthreads&#x27;: None, &#x27;quiet&#x27;: False, &#x27;import_models&#x27;: False, &#x27;timeout&#x27;: 10, &#x27;plain&#x27;: False, &#x27;nobanner&#x27;: False}&gt;</div></td></tr><tr><td style="font-weight:bold;vertical-align:top;">content_type</td><td style="vertical-align:top;">:</td><td><div>application/x-www-form-urlencoded; charset=UTF-8</div></td></tr><tr><td style="font-weight:bold;vertical-align:top;">db_sessions</td><td style="vertical-align:top;">:</td><td><div>set([])</div></td></tr><tr><td style="font-weight:bold;vertical-align:top;">debugging</td><td style="vertical-align:top;">:</td><td><div>True</div></td></tr><tr><td style="font-weight:bold;vertical-align:top;">gluon_parent</td><td style="vertical-align:top;">:</td><td><div>C:\\Users\\miroj\\helpdeskanalyser\\web2py</div></td></tr><tr><td style="font-weight:bold;vertical-align:top;">http_accept</td><td style="vertical-align:top;">:</td><td><div>*/*</div></td></tr><tr><td style="font-weight:bold;vertical-align:top;">http_accept_encoding</td><td style="vertical-align:top;">:</td><td><div>gzip, deflate</div></td></tr><tr><td style="font-weight:bold;vertical-align:top;">http_accept_language</td><td style="vertical-align:top;">:</td><td><div>pt-BR</div></td></tr><tr><td style="font-weight:bold;vertical-align:top;">http_connection</td><td style="vertical-align:top;">:</td><td><div>Keep-Alive</div></td></tr><tr><td style="font-weight:bold;vertical-align:top;">http_content_type</td><td style="vertical-align:top;">:</td><td><div>application/x-www-form-urlencoded; charset=UTF-8</div></td></tr><tr><td style="font-weight:bold;vertical-align:top;">http_cookie</td><td style="vertical-align:top;">:</td><td><div>PGADMIN_KEY=d1193ef2-8ef7-4d14-8162-94084f7be158; PGADMIN_LANGUAGE=en; session_id_welcome=127.0.0.1-4388046e-d52b-4edd-a724-980f06c81314; session_id_admin=127.0.0.1-e4f14cdd-c9c5-45e3-b703-1af99f647f13; pga4_session=e16a90ee-e132-4a6a-a1a4-61f883d17781!LCLR3x5s80MQd2mg4tkz0QR9RyE=; session_id_intelligentfactory=127.0.0.1-34145abf-2eeb-4768-800b-67b466405f31</div></td></tr><tr><td style="font-weight:bold;vertical-align:top;">http_host</td><td style="vertical-align:top;">:</td><td><div>127.0.0.1:8000</div></td></tr><tr><td style="font-weight:bold;vertical-align:top;">http_referer</td><td style="vertical-align:top;">:</td><td><div>http://127.0.0.1:8000/admin/default/edit/helpdeskanalyser/private/appconfig.ini?id=private</div></td></tr><tr><td style="font-weight:bold;vertical-align:top;">http_user_agent</td><td style="vertical-align:top;">:</td><td><div>Mozilla/5.0 (Windows NT 10.0; Win64; x64) AppleWebKit/537.36 (KHTML, like Gecko) Chrome/58.0.3029.110 Safari/537.36 Edge/16.16299</div></td></tr><tr><td style="font-weight:bold;vertical-align:top;">http_web2py_component_element</td><td style="vertical-align:top;">:</td><td><div>c120461450262</div></td></tr><tr><td style="font-weight:bold;vertical-align:top;">http_web2py_component_location</td><td style="vertical-align:top;">:</td><td><div>http://127.0.0.1:8000/admin/default/edit/helpdeskanalyser/private/appconfig.ini?id=private</div></td></tr><tr><td style="font-weight:bold;vertical-align:top;">http_x_requested_with</td><td style="vertical-align:top;">:</td><td><div>XMLHttpRequest</div></td></tr><tr><td style="font-weight:bold;vertical-align:top;">is_jython</td><td style="vertical-align:top;">:</td><td><div>False</div></td></tr><tr><td style="font-weight:bold;vertical-align:top;">is_py2</td><td style="vertical-align:top;">:</td><td><div>True</div></td></tr><tr><td style="font-weight:bold;vertical-align:top;">is_pypy</td><td style="vertical-align:top;">:</td><td><div>False</div></td></tr><tr><td style="font-weight:bold;vertical-align:top;">is_source</td><td style="vertical-align:top;">:</td><td><div>False</div></td></tr><tr><td style="font-weight:bold;vertical-align:top;">local_hosts</td><td style="vertical-align:top;">:</td><td><div><table><tr><td><div>2804:14c:7985:12e0:617f:5c9e:535a:882e</div></td></tr><tr><td><div>2001:0:34f1:8072:18fa:30bd:4044:28fd</div></td></tr><tr><td><div>2804:14c:7985:12e0::1000</div></td></tr><tr><td><div>fe80::1c5e:5909:bda7:4b55%12</div></td></tr><tr><td><div>fe80::18fa:30bd:4044:28fd%14</div></td></tr><tr><td><div>LAPTOP-HOMMVTDQ</div></td></tr><tr><td><div>::ffff:127.0.0.1</div></td></tr><tr><td><div>::1</div></td></tr><tr><td><div>192.168.0.12</div></td></tr><tr><td><div>2804:14c:7985:12e0:1c5e:5909:bda7:4b55</div></td></tr><tr><td><div>127.0.0.1</div></td></tr></table></div></td></tr><tr><td style="font-weight:bold;vertical-align:top;">path_info</td><td style="vertical-align:top;">:</td><td><div>/helpdeskanalyser/appadmin/hooks</div></td></tr><tr><td style="font-weight:bold;vertical-align:top;">query_string</td><td style="vertical-align:top;">:</td><td><div></div></td></tr><tr><td style="font-weight:bold;vertical-align:top;">remote_addr</td><td style="vertical-align:top;">:</td><td><div>127.0.0.1</div></td></tr><tr><td style="font-weight:bold;vertical-align:top;">remote_port</td><td style="vertical-align:top;">:</td><td><div>56987</div></td></tr><tr><td style="font-weight:bold;vertical-align:top;">request_method</td><td style="vertical-align:top;">:</td><td><div>GET</div></td></tr><tr><td style="font-weight:bold;vertical-align:top;">request_uri</td><td style="vertical-align:top;">:</td><td><div>/helpdeskanalyser/appadmin/hooks</div></td></tr><tr><td style="font-weight:bold;vertical-align:top;">script_name</td><td style="vertical-align:top;">:</td><td><div></div></td></tr><tr><td style="font-weight:bold;vertical-align:top;">server_name</td><td style="vertical-align:top;">:</td><td><div>LAPTOP-HOMMVTDQ</div></td></tr><tr><td style="font-weight:bold;vertical-align:top;">server_port</td><td style="vertical-align:top;">:</td><td><div>8000</div></td></tr><tr><td style="font-weight:bold;vertical-align:top;">server_protocol</td><td style="vertical-align:top;">:</td><td><div>HTTP/1.1</div></td></tr><tr><td style="font-weight:bold;vertical-align:top;">server_software</td><td style="vertical-align:top;">:</td><td><div>Rocket 1.2.6</div></td></tr><tr><td style="font-weight:bold;vertical-align:top;">web2py_path</td><td style="vertical-align:top;">:</td><td><div>C:\\Users\\miroj\\helpdeskanalyser\\web2py</div></td></tr><tr><td style="font-weight:bold;vertical-align:top;">web2py_version</td><td style="vertical-align:top;">:</td><td><div>2.18.5-stable+timestamp.2019.04.08.04.22.03</div></td></tr><tr><td style="font-weight:bold;vertical-align:top;">wsgi.errors</td><td style="vertical-align:top;">:</td><td><div>&lt;open file &#x27;&lt;stderr&gt;&#x27;, mode &#x27;w&#x27; at 0x042BD0D0&gt;</div></td></tr><tr><td style="font-weight:bold;vertical-align:top;">wsgi.file_wrapper</td><td style="vertical-align:top;">:</td><td><div>&lt;class wsgiref.util.FileWrapper at 0x055D3AB0&gt;</div></td></tr><tr><td style="font-weight:bold;vertical-align:top;">wsgi.input</td><td style="vertical-align:top;">:</td><td><div>&lt;socket._fileobject object at 0x069F2AF0&gt;</div></td></tr><tr><td style="font-weight:bold;vertical-align:top;">wsgi.multiprocess</td><td style="vertical-align:top;">:</td><td><div>False</div></td></tr><tr><td style="font-weight:bold;vertical-align:top;">wsgi.multithread</td><td style="vertical-align:top;">:</td><td><div>True</div></td></tr><tr><td style="font-weight:bold;vertical-align:top;">wsgi.run_once</td><td style="vertical-align:top;">:</td><td><div>False</div></td></tr><tr><td style="font-weight:bold;vertical-align:top;">wsgi.url_scheme</td><td style="vertical-align:top;">:</td><td><div>http</div></td></tr><tr><td style="font-weight:bold;vertical-align:top;">wsgi.version</td><td style="vertical-align:top;">:</td><td><div><table><tr><td><div>1</div></td></tr><tr><td><div>0</div></td></tr></table></div></td></tr><tr><td style="font-weight:bold;vertical-align:top;">wsgi_errors</td><td style="vertical-align:top;">:</td><td><div>&lt;open file &#x27;&lt;stderr&gt;&#x27;, mode &#x27;w&#x27; at 0x042BD0D0&gt;</div></td></tr><tr><td style="font-weight:bold;vertical-align:top;">wsgi_file_wrapper</td><td style="vertical-align:top;">:</td><td><div>&lt;class wsgiref.util.FileWrapper at 0x055D3AB0&gt;</div></td></tr><tr><td style="font-weight:bold;vertical-align:top;">wsgi_input</td><td style="vertical-align:top;">:</td><td><div>&lt;socket._fileobject object at 0x069F2AF0&gt;</div></td></tr><tr><td style="font-weight:bold;vertical-align:top;">wsgi_multiprocess</td><td style="vertical-align:top;">:</td><td><div>False</div></td></tr><tr><td style="font-weight:bold;vertical-align:top;">wsgi_multithread</td><td style="vertical-align:top;">:</td><td><div>True</div></td></tr><tr><td style="font-weight:bold;vertical-align:top;">wsgi_run_once</td><td style="vertical-align:top;">:</td><td><div>False</div></td></tr><tr><td style="font-weight:bold;vertical-align:top;">wsgi_url_scheme</td><td style="vertical-align:top;">:</td><td><div>http</div></td></tr><tr><td style="font-weight:bold;vertical-align:top;">wsgi_version</td><td style="vertical-align:top;">:</td><td><div><table><tr><td><div>1</div></td></tr><tr><td><div>0</div></td></tr></table></div></td></tr></table></div></td></tr><tr><td style="font-weight:bold;vertical-align:top;">extension</td><td style="vertical-align:top;">:</td><td><div>html</div></td></tr><tr><td style="font-weight:bold;vertical-align:top;">folder</td><td style="vertical-align:top;">:</td><td><div>C:\\Users\\miroj\\helpdeskanalyser\\web2py\\applications\\helpdeskanalyser</div></td></tr><tr><td style="font-weight:bold;vertical-align:top;">function</td><td style="vertical-align:top;">:</td><td><div>hooks</div></td></tr><tr><td style="font-weight:bold;vertical-align:top;">global_settings</td><td style="vertical-align:top;">:</td><td><div><table><tr><td style="font-weight:bold;vertical-align:top;">app_folders</td><td style="vertical-align:top;">:</td><td><div>set([&#x27;C:\\\\Users\\\\miroj\\\\helpdeskanalyser\\\\web2py\\\\applications\\\\helpdeskanalyser&#x27;, &#x27;C:\\\\Users\\\\miroj\\\\helpdeskanalyser\\\\web2py\\\\applications\\\\admin&#x27;, &#x27;C:\\\\Users\\\\miroj\\\\helpdeskanalyser\\\\web2py\\\\applications\\\\welcome&#x27;])</div></td></tr><tr><td style="font-weight:bold;vertical-align:top;">applications_parent</td><td style="vertical-align:top;">:</td><td><div>C:\\Users\\miroj\\helpdeskanalyser\\web2py</div></td></tr><tr><td style="font-weight:bold;vertical-align:top;">cmd_args</td><td style="vertical-align:top;">:</td><td><div><table></table></div></td></tr><tr><td style="font-weight:bold;vertical-align:top;">cmd_options</td><td style="vertical-align:top;">:</td><td><div>&lt;Values at 0x55825d0: {&#x27;verbose&#x27;: False, &#x27;ip&#x27;: &#x27;127.0.0.1&#x27;, &#x27;debuglevel&#x27;: 30, &#x27;with_scheduler&#x27;: False, &#x27;shutdown_timeout&#x27;: 5, &#x27;taskbar&#x27;: False, &#x27;with_coverage&#x27;: False, &#x27;pid_filename&#x27;: &#x27;httpserver.pid&#x27;, &#x27;maxthreads&#x27;: None, &#x27;softcron&#x27;: False, &#x27;server_name&#x27;: &#x27;LAPTOP-HOMMVTDQ&#x27;, &#x27;bpython&#x27;: False, &#x27;nogui&#x27;: False, &#x27;port&#x27;: 8000, &#x27;print_errors&#x27;: False, &#x27;extcron&#x27;: False, &#x27;runcron&#x27;: False, &#x27;run_system_tests&#x27;: False, &#x27;test&#x27;: None, &#x27;folder&#x27;: &#x27;C:\\\\Users\\\\miroj\\\\helpdeskanalyser\\\\web2py&#x27;, &#x27;config&#x27;: &#x27;&#x27;, &#x27;minthreads&#x27;: None, &#x27;shell&#x27;: None, &#x27;run&#x27;: &#x27;&#x27;, &#x27;log_filename&#x27;: &#x27;httpserver.log&#x27;, &#x27;profiler_dir&#x27;: None, &#x27;args&#x27;: [], &#x27;socket_timeout&#x27;: 5, &#x27;ssl_ca_certificate&#x27;: None, &#x27;scheduler&#x27;: None, &#x27;interfaces&#x27;: None, &#x27;ssl_private_key&#x27;: &#x27;&#x27;, &#x27;gae&#x27;: None, &#x27;password&#x27;: &#x27;******&#x27;, &#x27;request_queue_size&#x27;: 5, &#x27;ssl_certificate&#x27;: &#x27;&#x27;, &#x27;cronjob&#x27;: False, &#x27;numthreads&#x27;: None, &#x27;quiet&#x27;: False, &#x27;import_models&#x27;: False, &#x27;timeout&#x27;: 10, &#x27;plain&#x27;: False, &#x27;nobanner&#x27;: False}&gt;</div></td></tr><tr><td style="font-weight:bold;vertical-align:top;">db_sessions</td><td style="vertical-align:top;">:</td><td><div>set([])</div></td></tr><tr><td style="font-weight:bold;vertical-align:top;">debugging</td><td style="vertical-align:top;">:</td><td><div>True</div></td></tr><tr><td style="font-weight:bold;vertical-align:top;">gluon_parent</td><td style="vertical-align:top;">:</td><td><div>C:\\Users\\miroj\\helpdeskanalyser\\web2py</div></td></tr><tr><td style="font-weight:bold;vertical-align:top;">is_jython</td><td style="vertical-align:top;">:</td><td><div>False</div></td></tr><tr><td style="font-weight:bold;vertical-align:top;">is_py2</td><td style="vertical-align:top;">:</td><td><div>True</div></td></tr><tr><td style="font-weight:bold;vertical-align:top;">is_pypy</td><td style="vertical-align:top;">:</td><td><div>False</div></td></tr><tr><td style="font-weight:bold;vertical-align:top;">is_source</td><td style="vertical-align:top;">:</td><td><div>False</div></td></tr><tr><td style="font-weight:bold;vertical-align:top;">local_hosts</td><td style="vertical-align:top;">:</td><td><div><table><tr><td><div>2804:14c:7985:12e0:617f:5c9e:535a:882e</div></td></tr><tr><td><div>2001:0:34f1:8072:18fa:30bd:4044:28fd</div></td></tr><tr><td><div>2804:14c:7985:12e0::1000</div></td></tr><tr><td><div>fe80::1c5e:5909:bda7:4b55%12</div></td></tr><tr><td><div>fe80::18fa:30bd:4044:28fd%14</div></td></tr><tr><td><div>LAPTOP-HOMMVTDQ</div></td></tr><tr><td><div>::ffff:127.0.0.1</div></td></tr><tr><td><div>::1</div></td></tr><tr><td><div>192.168.0.12</div></td></tr><tr><td><div>2804:14c:7985:12e0:1c5e:5909:bda7:4b55</div></td></tr><tr><td><div>127.0.0.1</div></td></tr></table></div></td></tr><tr><td style="font-weight:bold;vertical-align:top;">web2py_version</td><td style="vertical-align:top;">:</td><td><div>2.18.5-stable+timestamp.2019.04.08.04.22.03</div></td></tr></table></div></td></tr><tr><td style="font-weight:bold;vertical-align:top;">is_https</td><td style="vertical-align:top;">:</td><td><div>False</div></td></tr><tr><td style="font-weight:bold;vertical-align:top;">is_local</td><td style="vertical-align:top;">:</td><td><div>True</div></td></tr><tr><td style="font-weight:bold;vertical-align:top;">is_restful</td><td style="vertical-align:top;">:</td><td><div>False</div></td></tr><tr><td style="font-weight:bold;vertical-align:top;">is_scheduler</td><td style="vertical-align:top;">:</td><td><div>False</div></td></tr><tr><td style="font-weight:bold;vertical-align:top;">is_shell</td><td style="vertical-align:top;">:</td><td><div>False</div></td></tr><tr><td style="font-weight:bold;vertical-align:top;">method</td><td style="vertical-align:top;">:</td><td><div>GET</div></td></tr><tr><td style="font-weight:bold;vertical-align:top;">now</td><td style="vertical-align:top;">:</td><td><div>datetime.datetime(2019, 6, 14, 6, 48, 27, 826000)</div></td></tr><tr><td style="font-weight:bold;vertical-align:top;">raw_args</td><td style="vertical-align:top;">:</td><td><div></div></td></tr><tr><td style="font-weight:bold;vertical-align:top;">raw_extension</td><td style="vertical-align:top;">:</td><td><div>None</div></td></tr><tr><td style="font-weight:bold;vertical-align:top;">url</td><td style="vertical-align:top;">:</td><td><div>/helpdeskanalyser/appadmin/hooks</div></td></tr><tr><td style="font-weight:bold;vertical-align:top;">utcnow</td><td style="vertical-align:top;">:</td><td><div>datetime.datetime(2019, 6, 14, 9, 48, 27, 826000)</div></td></tr><tr><td style="font-weight:bold;vertical-align:top;">wsgi</td><td style="vertical-align:top;">:</td><td><div>&lt;gluon.main.LazyWSGI object at 0x0B4C3A50&gt;</div></td></tr></table></div>'
tRp72
sS'frames'
p73
(lp74
(dp75
S'file'
p76
S'C:\\Users\\miroj\\helpdeskanalyser\\web2py\\gluon\\restricted.py'
p77
sS'dump'
p78
(dp79
S'environment'
p80
S"{'A': <class 'gluon.html.A'>, 'ANY_OF': <class 'pydal.validators.ANY_OF'>, 'ASSIGNJS': <function ASSIGNJS>, 'AppConfig': <function AppConfig>, 'Auth': <class 'gluon.tools.Auth'>, 'B': <class 'gluon.html.B'>, 'BEAUTIFY': <class 'gluon.html.BEAUTIFY'>, 'BODY': <class 'gluon.html.BODY'>, 'BR': <class 'gluon.html.BR'>, 'BUTTON': <class 'gluon.html.BUTTON'>, ...}"
p81
sS'ccode'
p82
S'<code object <module> at 066007B8, file "C:\\User...kanalyser\\models\\db_helpdeskanalyser.py", line 8>'
p83
ssS'lnum'
p84
I219
sS'lines'
p85
(dp86
I214
S'    if environment is None:'
p87
sI215
S'        environment = {}'
p88
sI216
S"    environment['__file__'] = layer"
p89
sI217
S"    environment['__name__'] = '__restricted__'"
p90
sI218
S'    try:'
p91
sI219
S'        exec(ccode, environment)'
p92
sI220
S'    except HTTP:'
p93
sI221
S'        raise'
p94
sI222
S'    except RestrictedError:'
p95
sI223
S'        # do not encapsulate (obfuscate) the original RestrictedError'
p96
ssS'call'
p97
S'(ccode=<code object <module> at 066007B8, file "C:\\User...kanalyser\\models\\db_helpdeskanalyser.py", line 8>, environment={\'A\': <class \'gluon.html.A\'>, \'ANY_OF\': <class \'pydal.validators.ANY_OF\'>, \'ASSIGNJS\': <function ASSIGNJS>, \'AppConfig\': <function AppConfig>, \'Auth\': <class \'gluon.tools.Auth\'>, \'B\': <class \'gluon.html.B\'>, \'BEAUTIFY\': <class \'gluon.html.BEAUTIFY\'>, \'BODY\': <class \'gluon.html.BODY\'>, \'BR\': <class \'gluon.html.BR\'>, \'BUTTON\': <class \'gluon.html.BUTTON\'>, ...}, layer=r\'C:\\Users\\miroj\\helpdeskanalyser\\web2py\\applications\\helpdeskanalyser\\models\\db_helpdeskanalyser.py\', scode=<code object <module> at 066007B8, file "C:\\User...kanalyser\\models\\db_helpdeskanalyser.py", line 8>)'
p98
sS'func'
p99
S'restricted'
p100
sa(dp101
g76
S'C:\\Users\\miroj\\helpdeskanalyser\\web2py\\applications\\helpdeskanalyser\\models\\db_helpdeskanalyser.py'
p102
sg78
(dp103
S'migrate'
p104
S'True'
p105
ssg84
I44
sg85
(dp106
I39
S''
sI40
S"db.define_table('sender_to',"
p107
sI41
S"    Field('id', type='string', length=100),"
p108
sI42
S"    Field('emailid', type='id'),"
p109
sI43
S"    Field('email_to', type='string', length=100),"
p110
sI44
S'    migrate=migrate)'
p111
sI45
S''
sI46
S''
sI47
S"db.define_table('sender_email',"
p112
sI48
S"    Field('sender_emailid',    type='id'),"
p113
ssg97
S'()'
p114
sg99
S'<module>'
p115
sa(dp116
g76
S'C:\\Users\\miroj\\helpdeskanalyser\\web2py\\gluon\\packages\\dal\\pydal\\base.py'
p117
sg78
(dp118
S'fields'
p119
S'(<pydal.objects.Field object>, <pydal.objects.Field object>, <pydal.objects.Field object>)'
p120
sS'self'
p121
S'<DAL uri="postgres://******@localhost:5432/jmenzen">'
p122
sS'tablename'
p123
S"'sender_to'"
p124
sS'kwargs'
p125
S"{'migrate': True}"
p126
sS'table'
p127
S'undefined'
p128
sS'self.lazy_define_table'
p129
S'<bound method DAL.lazy_define_table of <DAL uri="postgres://******@localhost:5432/jmenzen">>'
p130
ssg84
I592
sg85
(dp131
I587
S'        if self._lazy_tables:'
p132
sI588
S'            if tablename not in self._LAZY_TABLES or redefine:'
p133
sI589
S'                self._LAZY_TABLES[tablename] = (tablename, fields, kwargs)'
p134
sI590
S'            table = None'
p135
sI591
S'        else:'
p136
sI592
S'            table = self.lazy_define_table(tablename, *fields, **kwargs)'
p137
sI593
S'        if tablename not in self.tables:'
p138
sI594
S'            self.tables.append(tablename)'
p139
sI595
S'        return table'
p140
sI596
S''
ssg97
S'(self=<DAL uri="postgres://******@localhost:5432/jmenzen">, tablename=\'sender_to\', *fields=(<pydal.objects.Field object>, <pydal.objects.Field object>, <pydal.objects.Field object>), **kwargs={\'migrate\': True})'
p141
sg99
S'define_table'
p142
sa(dp143
g76
S'C:\\Users\\miroj\\helpdeskanalyser\\web2py\\gluon\\packages\\dal\\pydal\\base.py'
p144
sg78
(dp145
S'polymodel'
p146
S'None'
p147
ssg84
I626
sg85
(dp148
I621
S'            try:'
p149
sI622
S'                GLOBAL_LOCKER.acquire()'
p150
sI623
S'                self._adapter.create_table('
p151
sI624
S'                    table, migrate=migrate,'
p152
sI625
S'                    fake_migrate=fake_migrate,'
p153
sI626
S'                    polymodel=polymodel)'
p154
sI627
S'            finally:'
p155
sI628
S'                GLOBAL_LOCKER.release()'
p156
sI629
S'        else:'
p157
sI630
S'            table._dbt = None'
p158
ssg97
S'(self=<DAL uri="postgres://******@localhost:5432/jmenzen">, tablename=\'sender_to\', *fields=(<pydal.objects.Field object>, <pydal.objects.Field object>, <pydal.objects.Field object>), **kwargs={\'migrate\': True})'
p159
sg99
S'lazy_define_table'
p160
sa(dp161
g76
S'C:\\Users\\miroj\\helpdeskanalyser\\web2py\\gluon\\packages\\dal\\pydal\\adapters\\base.py'
p162
sg78
(dp163
S'self'
p164
S'<pydal.adapters.postgres.PostgrePsyco object>'
p165
sS'args'
p166
S'(<Table sender_to (id, emailid, email_to)>,)'
p167
sS'self.migrator'
p168
S'<pydal.migrator.Migrator object>'
p169
sS'self.migrator.create_table'
p170
S'<bound method Migrator.create_table of <pydal.migrator.Migrator object>>'
p171
sS'kwargs'
p172
S"{'fake_migrate': False, 'migrate': True, 'polymodel': None}"
p173
ssg84
I798
sg85
(dp174
I800
S'    def _drop_table_cleanup(self, table):'
p175
sI801
S'        super(SQLAdapter, self)._drop_table_cleanup(table)'
p176
sI802
S'        if table._dbt:'
p177
sI793
S''
sI794
S'    def bulk_insert(self, table, items):'
p178
sI795
S'        return [self.insert(table, item) for item in items]'
p179
sI796
S''
sI797
S'    def create_table(self, *args, **kwargs):'
p180
sI798
S'        return self.migrator.create_table(*args, **kwargs)'
p181
sI799
S''
ssg97
S"(self=<pydal.adapters.postgres.PostgrePsyco object>, *args=(<Table sender_to (id, emailid, email_to)>,), **kwargs={'fake_migrate': False, 'migrate': True, 'polymodel': None})"
p182
sg99
S'create_table'
p183
sa(dp184
g76
S'C:\\Users\\miroj\\helpdeskanalyser\\web2py\\gluon\\packages\\dal\\pydal\\migrator.py'
p185
sg78
(dp186
S'query'
p187
S'\'CREATE TABLE "sender_to"(\\n    "emailid" SERIAL P...ERIAL PRIMARY KEY,\\n    "email_to" VARCHAR(100)\\n);\''
p188
sS'self'
p189
S'<pydal.migrator.Migrator object>'
p190
sS'self.adapter'
p191
S'<pydal.adapters.postgres.PostgrePsyco object>'
p192
sS'self.adapter.create_sequence_and_triggers'
p193
S'<bound method PostgrePsyco.create_sequence_and_t...of <pydal.adapters.postgres.PostgrePsyco object>>'
p194
sS'table'
p195
S'<Table sender_to (id, emailid, email_to)>'
p196
ssg84
I281
sg85
(dp197
I276
S'            if table._dbt:'
p198
sI277
S"                self.log('timestamp: %s\\n%s\\n'"
p199
sI278
S'                         % (datetime.datetime.today().isoformat(),'
p200
sI279
S'                            query), table)'
p201
sI280
S'            if not fake_migrate:'
p202
sI281
S'                self.adapter.create_sequence_and_triggers(query, table)'
p203
sI282
S'                db.commit()'
p204
sI283
S'                # Postgres geom fields are added now,'
p205
sI284
S'                # after the table has been created'
p206
sI285
S'                for query in postcreation_fields:'
p207
ssg97
S'(self=<pydal.migrator.Migrator object>, table=<Table sender_to (id, emailid, email_to)>, migrate=True, fake_migrate=False, polymodel=None)'
p208
sg99
g183
sa(dp209
g76
S'C:\\Users\\miroj\\helpdeskanalyser\\web2py\\gluon\\packages\\dal\\pydal\\adapters\\base.py'
p210
sg78
(dp211
S'query'
p212
S'\'CREATE TABLE "sender_to"(\\n    "emailid" SERIAL P...ERIAL PRIMARY KEY,\\n    "email_to" VARCHAR(100)\\n);\''
p213
sS'self'
p214
S'<pydal.adapters.postgres.PostgrePsyco object>'
p215
sS'self.execute'
p216
S'<bound method PostgrePsyco.wrap of <pydal.adapters.postgres.PostgrePsyco object>>'
p217
ssg84
I881
sg85
(dp218
I876
S'    @with_connection'
p219
sI877
S'    def rollback_prepared(self, key):'
p220
sI878
S'        self.connection.rollback()'
p221
sI879
S''
sI880
S'    def create_sequence_and_triggers(self, query, table, **args):'
p222
sI881
S'        self.execute(query)'
p223
sI882
S''
sI883
S'    def sqlsafe_table(self, tablename, original_tablename=None):'
p224
sI884
S'        if original_tablename is not None:'
p225
sI885
S'            return self.dialect.alias(original_tablename, tablename)'
p226
ssg97
S'(self=<pydal.adapters.postgres.PostgrePsyco object>, query=\'CREATE TABLE "sender_to"(\\n    "emailid" SERIAL P...ERIAL PRIMARY KEY,\\n    "email_to" VARCHAR(100)\\n);\', table=<Table sender_to (id, emailid, email_to)>, **args={})'
p227
sg99
S'create_sequence_and_triggers'
p228
sa(dp229
g76
S'C:\\Users\\miroj\\helpdeskanalyser\\web2py\\gluon\\packages\\dal\\pydal\\adapters\\__init__.py'
p230
sg78
(dp231
S'kwargs'
p232
g21
sS'args'
p233
S'(<pydal.adapters.postgres.PostgrePsyco object>, \'CREATE TABLE "sender_to"(\\n    "emailid" SERIAL P...ERIAL PRIMARY KEY,\\n    "email_to" VARCHAR(100)\\n);\')'
p234
sS'f'
S'<function execute>'
p235
ssg84
I67
sg85
(dp236
I64
S'            if len(args) > 1:'
p237
sI65
S'                raise ValueError(args[1])'
p238
sI66
S"            raise RuntimeError('no connection available')"
p239
sI67
S'        return f(*args, **kwargs)'
p240
sI68
S'    return wrap'
p241
sI69
S''
sI70
S''
sI71
S'from .base import SQLAdapter, NoSQLAdapter'
p242
sI62
S'    def wrap(*args, **kwargs):'
p243
sI63
S'        if not args[0].connection:'
p244
ssg97
S'(*args=(<pydal.adapters.postgres.PostgrePsyco object>, \'CREATE TABLE "sender_to"(\\n    "emailid" SERIAL P...ERIAL PRIMARY KEY,\\n    "email_to" VARCHAR(100)\\n);\'), **kwargs={})'
p245
sg99
S'wrap'
p246
sa(dp247
g76
S'C:\\Users\\miroj\\helpdeskanalyser\\web2py\\gluon\\packages\\dal\\pydal\\adapters\\base.py'
p248
sg78
(dp249
S'rv'
p250
g128
sS'self'
p251
S'<pydal.adapters.postgres.PostgrePsyco object>'
p252
sS'args'
p253
S'(\'CREATE TABLE "sender_to"(\\n    "emailid" SERIAL P...ERIAL PRIMARY KEY,\\n    "email_to" VARCHAR(100)\\n);\',)'
p254
sS'self.cursor'
p255
S'<cursor object at 0x065327B0; closed: 0>'
p256
sS'command'
p257
S'\'CREATE TABLE "sender_to"(\\n    "emailid" SERIAL P...ERIAL PRIMARY KEY,\\n    "email_to" VARCHAR(100)\\n);\''
p258
sS'self.cursor.execute'
p259
S'<built-in method execute of psycopg2._psycopg.cursor object>'
p260
sS'kwargs'
p261
g21
ssg84
I413
sg85
(dp262
I416
S'        return rv'
p263
sI417
S''
sI408
S'    def execute(self, *args, **kwargs):'
p264
sI409
S'        command = self.filter_sql_command(args[0])'
p265
sI410
S'        handlers = self._build_handlers_for_execution()'
p266
sI411
S'        for handler in handlers:'
p267
sI412
S'            handler.before_execute(command)'
p268
sI413
S'        rv = self.cursor.execute(command, *args[1:], **kwargs)'
p269
sI414
S'        for handler in handlers:'
p270
sI415
S'            handler.after_execute(command)'
p271
ssg97
S'(self=<pydal.adapters.postgres.PostgrePsyco object>, *args=(\'CREATE TABLE "sender_to"(\\n    "emailid" SERIAL P...ERIAL PRIMARY KEY,\\n    "email_to" VARCHAR(100)\\n);\',), **kwargs={})'
p272
sg99
S'execute'
p273
sasS'pyver'
p274
S'Python 2.7.9: C:\\Users\\miroj\\helpdeskanalyser\\web2py\\web2py.exe (prefix: )'
p275
sS'session'
p276
g71
(S's\x1a\x00\x00\x00<div><table></table></div>'
tRp277
sS'etype'
p278
S"<class 'psycopg2.ProgrammingError'>"
p279
sS'date'
p280
S'Fri Jun 14 06:48:28 2019'
p281
sS'response'
p282
g71
(S's\xcc\x1a\x00\x00<div><table><tr><td style="font-weight:bold;vertical-align:top;">body</td><td style="vertical-align:top;">:</td><td><div>&lt;cStringIO.StringO object at 0x0B4C3540&gt;</div></td></tr><tr><td style="font-weight:bold;vertical-align:top;">cookies</td><td style="vertical-align:top;">:</td><td><div><table><tr><td style="font-weight:bold;vertical-align:top;">session_id_helpdeskanalyser</td><td style="vertical-align:top;">:</td><td><div>127.0.0.1-2434e49c-6154-4d8d-b113-fe8453784c00<table><tr><td style="font-weight:bold;vertical-align:top;">comment</td><td style="vertical-align:top;">:</td><td><div></div></td></tr><tr><td style="font-weight:bold;vertical-align:top;">domain</td><td style="vertical-align:top;">:</td><td><div></div></td></tr><tr><td style="font-weight:bold;vertical-align:top;">expires</td><td style="vertical-align:top;">:</td><td><div></div></td></tr><tr><td style="font-weight:bold;vertical-align:top;">httponly</td><td style="vertical-align:top;">:</td><td><div></div></td></tr><tr><td style="font-weight:bold;vertical-align:top;">max-age</td><td style="vertical-align:top;">:</td><td><div></div></td></tr><tr><td style="font-weight:bold;vertical-align:top;">path</td><td style="vertical-align:top;">:</td><td><div>/</div></td></tr><tr><td style="font-weight:bold;vertical-align:top;">samesite</td><td style="vertical-align:top;">:</td><td><div></div></td></tr><tr><td style="font-weight:bold;vertical-align:top;">secure</td><td style="vertical-align:top;">:</td><td><div></div></td></tr><tr><td style="font-weight:bold;vertical-align:top;">version</td><td style="vertical-align:top;">:</td><td><div></div></td></tr></table></div></td></tr></table></div></td></tr><tr><td style="font-weight:bold;vertical-align:top;">delimiters</td><td style="vertical-align:top;">:</td><td><div><table><tr><td><div>{{</div></td></tr><tr><td><div>}}</div></td></tr></table></div></td></tr><tr><td style="font-weight:bold;vertical-align:top;">files</td><td style="vertical-align:top;">:</td><td><div><table></table></div></td></tr><tr><td style="font-weight:bold;vertical-align:top;">flash</td><td style="vertical-align:top;">:</td><td><div></div></td></tr><tr><td style="font-weight:bold;vertical-align:top;">form_label_separator</td><td style="vertical-align:top;">:</td><td><div></div></td></tr><tr><td style="font-weight:bold;vertical-align:top;">formstyle</td><td style="vertical-align:top;">:</td><td><div>bootstrap4_inline</div></td></tr><tr><td style="font-weight:bold;vertical-align:top;">generic_patterns</td><td style="vertical-align:top;">:</td><td><div><table><tr><td><div>*</div></td></tr></table></div></td></tr><tr><td style="font-weight:bold;vertical-align:top;">google_analytics_id</td><td style="vertical-align:top;">:</td><td><div>None</div></td></tr><tr><td style="font-weight:bold;vertical-align:top;">headers</td><td style="vertical-align:top;">:</td><td><div><table><tr><td style="font-weight:bold;vertical-align:top;">X-Powered-By</td><td style="vertical-align:top;">:</td><td><div>web2py</div></td></tr></table></div></td></tr><tr><td style="font-weight:bold;vertical-align:top;">menu</td><td style="vertical-align:top;">:</td><td><div><table></table></div></td></tr><tr><td style="font-weight:bold;vertical-align:top;">meta</td><td style="vertical-align:top;">:</td><td><div><table><tr><td style="font-weight:bold;vertical-align:top;">author</td><td style="vertical-align:top;">:</td><td><div>Your Name &lt;you@example.com&gt;</div></td></tr><tr><td style="font-weight:bold;vertical-align:top;">description</td><td style="vertical-align:top;">:</td><td><div>a cool new app</div></td></tr><tr><td style="font-weight:bold;vertical-align:top;">generator</td><td style="vertical-align:top;">:</td><td><div>Web2py Web Framework</div></td></tr><tr><td style="font-weight:bold;vertical-align:top;">keywords</td><td style="vertical-align:top;">:</td><td><div><table><tr><td><div>web2py</div></td></tr><tr><td><div>python</div></td></tr><tr><td><div>framework</div></td></tr></table></div></td></tr></table></div></td></tr><tr><td style="font-weight:bold;vertical-align:top;">models_to_run</td><td style="vertical-align:top;">:</td><td><div><table><tr><td><div>^\\w+\\.py$</div></td></tr><tr><td><div>^appadmin/\\w+\\.py$</div></td></tr><tr><td><div>^appadmin/hooks/\\w+\\.py$</div></td></tr></table></div></td></tr><tr><td style="font-weight:bold;vertical-align:top;">postprocessing</td><td style="vertical-align:top;">:</td><td><div><table></table></div></td></tr><tr><td style="font-weight:bold;vertical-align:top;">session_client</td><td style="vertical-align:top;">:</td><td><div>127.0.0.1</div></td></tr><tr><td style="font-weight:bold;vertical-align:top;">session_cookie_compression_level</td><td style="vertical-align:top;">:</td><td><div>None</div></td></tr><tr><td style="font-weight:bold;vertical-align:top;">session_cookie_expires</td><td style="vertical-align:top;">:</td><td><div>None</div></td></tr><tr><td style="font-weight:bold;vertical-align:top;">session_data_name</td><td style="vertical-align:top;">:</td><td><div>session_data_helpdeskanalyser</div></td></tr><tr><td style="font-weight:bold;vertical-align:top;">session_file</td><td style="vertical-align:top;">:</td><td><div>None</div></td></tr><tr><td style="font-weight:bold;vertical-align:top;">session_filename</td><td style="vertical-align:top;">:</td><td><div>C:\\Users\\miroj\\helpdeskanalyser\\web2py\\applications\\helpdeskanalyser\\sessions\\127.0.0.1-2434e49c-6154-4d8d-b113-fe8453784c00</div></td></tr><tr><td style="font-weight:bold;vertical-align:top;">session_hash</td><td style="vertical-align:top;">:</td><td><div>c0762cbf4baf7f9af97c051e7fcb8083</div></td></tr><tr><td style="font-weight:bold;vertical-align:top;">session_id</td><td style="vertical-align:top;">:</td><td><div>127.0.0.1-2434e49c-6154-4d8d-b113-fe8453784c00</div></td></tr><tr><td style="font-weight:bold;vertical-align:top;">session_id_name</td><td style="vertical-align:top;">:</td><td><div>session_id_helpdeskanalyser</div></td></tr><tr><td style="font-weight:bold;vertical-align:top;">session_masterapp</td><td style="vertical-align:top;">:</td><td><div>helpdeskanalyser</div></td></tr><tr><td style="font-weight:bold;vertical-align:top;">session_new</td><td style="vertical-align:top;">:</td><td><div>True</div></td></tr><tr><td style="font-weight:bold;vertical-align:top;">session_storage_type</td><td style="vertical-align:top;">:</td><td><div>file</div></td></tr><tr><td style="font-weight:bold;vertical-align:top;">show_toolbar</td><td style="vertical-align:top;">:</td><td><div>False</div></td></tr><tr><td style="font-weight:bold;vertical-align:top;">status</td><td style="vertical-align:top;">:</td><td><div>200</div></td></tr><tr><td style="font-weight:bold;vertical-align:top;">view</td><td style="vertical-align:top;">:</td><td><div>appadmin/hooks.html</div></td></tr></table></div>'
tRp283
sS'locals'
p284
(dp285
S'handlers'
p286
S'[<pydal.helpers.classes.TimingHandler object>]'
p287
sS'self'
p288
S'<pydal.adapters.postgres.PostgrePsyco object>'
p289
sg52
S'(\'CREATE TABLE "sender_to"(\\n    "emailid" SERIAL P...ERIAL PRIMARY KEY,\\n    "email_to" VARCHAR(100)\\n);\',)'
p290
sS'handler'
p291
S'<pydal.helpers.classes.TimingHandler object>'
p292
sS'command'
p293
S'\'CREATE TABLE "sender_to"(\\n    "emailid" SERIAL P...ERIAL PRIMARY KEY,\\n    "email_to" VARCHAR(100)\\n);\''
p294
sS'kwargs'
p295
g21
sssS'traceback'
p296
S'Traceback (most recent call last):\n  File "C:\\Users\\miroj\\helpdeskanalyser\\web2py\\gluon\\restricted.py", line 219, in restricted\n    exec(ccode, environment)\n  File "C:\\Users\\miroj\\helpdeskanalyser\\web2py\\applications\\helpdeskanalyser\\models\\db_helpdeskanalyser.py", line 44, in <module>\n    migrate=migrate)\n  File "C:\\Users\\miroj\\helpdeskanalyser\\web2py\\gluon\\packages\\dal\\pydal\\base.py", line 592, in define_table\n    table = self.lazy_define_table(tablename, *fields, **kwargs)\n  File "C:\\Users\\miroj\\helpdeskanalyser\\web2py\\gluon\\packages\\dal\\pydal\\base.py", line 626, in lazy_define_table\n    polymodel=polymodel)\n  File "C:\\Users\\miroj\\helpdeskanalyser\\web2py\\gluon\\packages\\dal\\pydal\\adapters\\base.py", line 798, in create_table\n    return self.migrator.create_table(*args, **kwargs)\n  File "C:\\Users\\miroj\\helpdeskanalyser\\web2py\\gluon\\packages\\dal\\pydal\\migrator.py", line 281, in create_table\n    self.adapter.create_sequence_and_triggers(query, table)\n  File "C:\\Users\\miroj\\helpdeskanalyser\\web2py\\gluon\\packages\\dal\\pydal\\adapters\\base.py", line 881, in create_sequence_and_triggers\n    self.execute(query)\n  File "C:\\Users\\miroj\\helpdeskanalyser\\web2py\\gluon\\packages\\dal\\pydal\\adapters\\__init__.py", line 67, in wrap\n    return f(*args, **kwargs)\n  File "C:\\Users\\miroj\\helpdeskanalyser\\web2py\\gluon\\packages\\dal\\pydal\\adapters\\base.py", line 413, in execute\n    rv = self.cursor.execute(command, *args[1:], **kwargs)\nProgrammingError: multiple primary keys for table "sender_to" are not allowed\nLINE 3:     "emailid" SERIAL PRIMARY KEY,\n                             ^\n\n'
p297
s.