(dp0
S'dataset_emails'
p1
(dp2
S'rname'
p3
S'"dataset_emails"'
p4
sS'sortable'
p5
I2
sS'raw_rname'
p6
S'dataset_emails'
p7
sS'notnull'
p8
I00
sS'length'
p9
I100
sS'sql'
p10
S'VARCHAR(100)'
p11
sS'unique'
p12
I00
sS'type'
p13
S'string'
p14
ssS'dataset_emailsid'
p15
(dp16
g3
S'"dataset_emailsid"'
p17
sg5
I1
sg6
S'dataset_emailsid'
p18
sg8
I00
sg9
I512
sg10
S'SERIAL PRIMARY KEY'
p19
sg12
I00
sg13
S'id'
p20
ss.