(dp0
S'feelingid'
p1
(dp2
S'rname'
p3
S'"feelingid"'
p4
sS'sortable'
p5
I1
sS'raw_rname'
p6
S'feelingid'
p7
sS'notnull'
p8
I00
sS'length'
p9
I512
sS'sql'
p10
S'SERIAL PRIMARY KEY'
p11
sS'unique'
p12
I00
sS'type'
p13
S'id'
p14
ssS'feeling_name'
p15
(dp16
g3
S'"feeling_name"'
p17
sg5
I2
sg6
S'feeling_name'
p18
sg8
I00
sg9
I100
sg10
S'VARCHAR(100)'
p19
sg12
I00
sg13
S'string'
p20
ssS'id'
p21
(dp22
g3
S'"id"'
p23
sg5
I3
sg6
g14
sg8
I00
sg9
I100
sg10
S'VARCHAR(100)'
p24
sg12
I00
sg13
g20
ss.